target datalayout = "e-m:e-p270:32:32-p271:32:32-p272:64:64-i64:64-i128:128-f80:128-n8:16:32:64-S128"
target triple = "x86_64-pc-linux-gnu"

%struct.AVFormatContext = type { ptr, ptr, ptr, ptr, ptr, i32, i32, ptr, i32, ptr, i32, ptr, ptr, i64, i64, i64, i32, i32, i32, i64, i64, ptr, i32, i32, ptr, i32, i32, i32, i32, ptr, i64, i32, i32, %struct.AVIOInterruptCB, i32, i32, i32, i32, i64, i32, i32, i32, i32, i32, i32, i32, i32, i32, i32, i32, i32, i64, i32, i32, i32, i32, i32, ptr, ptr, ptr, ptr, i32, ptr, ptr, ptr, ptr, i32, ptr, ptr, i64, ptr, ptr, ptr, i64 }
%struct.AVIOInterruptCB = type { ptr, ptr }
%struct.AVStream = type { ptr, i32, i32, ptr, ptr, %struct.AVRational, i64, i64, i64, i32, i32, %struct.AVRational, ptr, %struct.AVRational, %struct.AVPacket, i32, %struct.AVRational, i32 }
%struct.AVPacket = type { ptr, i64, i64, ptr, i32, i32, i32, ptr, i32, i64, i64, ptr, ptr, %struct.AVRational }
%struct.AVRational = type { i32, i32 }

; Function Attrs: nounwind uwtable
define internal i32 @vc1t_read_packet(ptr noundef %0, ptr noundef %1) #0 {
  %3 = alloca i32, align 4
  %4 = alloca ptr, align 8
  %5 = alloca ptr, align 8
  %6 = alloca ptr, align 8
  %7 = alloca i32, align 4
  %8 = alloca i32, align 4
  %9 = alloca i32, align 4
  %10 = alloca i32, align 4
  store ptr %0, ptr %4, align 8, !tbaa !16
  store ptr %1, ptr %5, align 8, !tbaa !50
  call void @llvm.lifetime.start.p0(i64 8, ptr %6) #3
  %11 = load ptr, ptr %4, align 8, !tbaa !16
  %12 = getelementptr inbounds nuw %struct.AVFormatContext, ptr %11, i32 0, i32 4
  %13 = load ptr, ptr %12, align 8, !tbaa !18
  store ptr %13, ptr %6, align 8, !tbaa !33
  call void @llvm.lifetime.start.p0(i64 4, ptr %7) #3
  call void @llvm.lifetime.start.p0(i64 4, ptr %8) #3
  store i32 0, ptr %8, align 4, !tbaa !15
  call void @llvm.lifetime.start.p0(i64 4, ptr %9) #3
  %14 = load ptr, ptr %6, align 8, !tbaa !33
  %15 = call i32 @avio_feof(ptr noundef %14)
  %16 = icmp ne i32 %15, 0
  br i1 %16, label %17, label %18

17:                                               ; preds = %2
  store i32 -541478725, ptr %3, align 4
  store i32 1, ptr %10, align 4
  br label %65

18:                                               ; preds = %2
  %19 = load ptr, ptr %6, align 8, !tbaa !33
  %20 = call i32 @avio_rl24(ptr noundef %19)
  store i32 %20, ptr %7, align 4, !tbaa !15
  %21 = load ptr, ptr %6, align 8, !tbaa !33
  %22 = call i32 @avio_r8(ptr noundef %21)
  %23 = and i32 %22, 128
  %24 = icmp ne i32 %23, 0
  br i1 %24, label %25, label %26

25:                                               ; preds = %18
  store i32 1, ptr %8, align 4, !tbaa !15
  br label %26

26:                                               ; preds = %25, %18
  %27 = load ptr, ptr %6, align 8, !tbaa !33
  %28 = call i32 @avio_rl32(ptr noundef %27)
  store i32 %28, ptr %9, align 4, !tbaa !15
  %29 = load ptr, ptr %6, align 8, !tbaa !33
  %30 = load ptr, ptr %5, align 8, !tbaa !50
  %31 = load i32, ptr %7, align 4, !tbaa !15
  %32 = call i32 @av_get_packet(ptr noundef %29, ptr noundef %30, i32 noundef %31)
  %33 = icmp slt i32 %32, 0
  br i1 %33, label %34, label %35

34:                                               ; preds = %26
  store i32 -5, ptr %3, align 4
  store i32 1, ptr %10, align 4
  br label %65

35:                                               ; preds = %26
  %36 = load ptr, ptr %4, align 8, !tbaa !16
  %37 = getelementptr inbounds nuw %struct.AVFormatContext, ptr %36, i32 0, i32 7
  %38 = load ptr, ptr %37, align 8, !tbaa !52
  %39 = getelementptr inbounds ptr, ptr %38, i64 0
  %40 = load ptr, ptr %39, align 8, !tbaa !34
  %41 = getelementptr inbounds nuw %struct.AVStream, ptr %40, i32 0, i32 5
  %42 = getelementptr inbounds nuw %struct.AVRational, ptr %41, i32 0, i32 1
  %43 = load i32, ptr %42, align 4, !tbaa !53
  %44 = icmp eq i32 %43, 1000
  br i1 %44, label %45, label %50

45:                                               ; preds = %35
  %46 = load i32, ptr %9, align 4, !tbaa !15
  %47 = zext i32 %46 to i64
  %48 = load ptr, ptr %5, align 8, !tbaa !50
  %49 = getelementptr inbounds nuw %struct.AVPacket, ptr %48, i32 0, i32 1
  store i64 %47, ptr %49, align 8, !tbaa !54
  br label %50

50:                                               ; preds = %45, %35
  %51 = load i32, ptr %8, align 4, !tbaa !15
  %52 = icmp ne i32 %51, 0
  %53 = select i1 %52, i32 1, i32 0
  %54 = load ptr, ptr %5, align 8, !tbaa !50
  %55 = getelementptr inbounds nuw %struct.AVPacket, ptr %54, i32 0, i32 6
  %56 = load i32, ptr %55, align 8, !tbaa !55
  %57 = or i32 %56, %53
  store i32 %57, ptr %55, align 8, !tbaa !55
  %58 = load ptr, ptr %5, align 8, !tbaa !50
  %59 = getelementptr inbounds nuw %struct.AVPacket, ptr %58, i32 0, i32 10
  %60 = load i64, ptr %59, align 8, !tbaa !56
  %61 = sub nsw i64 %60, 8
  store i64 %61, ptr %59, align 8, !tbaa !56
  %62 = load ptr, ptr %5, align 8, !tbaa !50
  %63 = getelementptr inbounds nuw %struct.AVPacket, ptr %62, i32 0, i32 4
  %64 = load i32, ptr %63, align 8, !tbaa !57
  store i32 %64, ptr %3, align 4
  store i32 1, ptr %10, align 4
  br label %65

65:                                               ; preds = %50, %34, %17
  call void @llvm.lifetime.end.p0(i64 4, ptr %9) #3
  call void @llvm.lifetime.end.p0(i64 4, ptr %8) #3
  call void @llvm.lifetime.end.p0(i64 4, ptr %7) #3
  call void @llvm.lifetime.end.p0(i64 8, ptr %6) #3
  %66 = load i32, ptr %3, align 4
  ret i32 %66
}