; Function Attrs: nounwind uwtable
define internal i32 @vc1t_read_packet(ptr noundef readonly captures(none) %0, ptr noundef %1) #1 {
  %3 = getelementptr inbounds nuw i8, ptr %0, i64 32
  %4 = load ptr, ptr %3, align 8, !tbaa !13
  %5 = tail call i32 @avio_feof(ptr noundef %4) #3
  %.not = icmp eq i32 %5, 0
  br i1 %.not, label %6, label %32

6:                                                ; preds = %2
  %7 = tail call i32 @avio_rl24(ptr noundef %4) #3
  %8 = tail call i32 @avio_r8(ptr noundef %4) #3
  %9 = tail call i32 @avio_rl32(ptr noundef %4) #3
  %10 = tail call i32 @av_get_packet(ptr noundef %4, ptr noundef %1, i32 noundef %7) #3
  %11 = icmp slt i32 %10, 0
  br i1 %11, label %32, label %12

12:                                               ; preds = %6
  %13 = getelementptr inbounds nuw i8, ptr %0, i64 48
  %14 = load ptr, ptr %13, align 8, !tbaa !42
  %15 = load ptr, ptr %14, align 8, !tbaa !43
  %16 = getelementptr inbounds nuw i8, ptr %15, i64 36
  %17 = load i32, ptr %16, align 4, !tbaa !45
  %18 = icmp eq i32 %17, 1000
  br i1 %18, label %19, label %22

19:                                               ; preds = %12
  %20 = zext i32 %9 to i64
  %21 = getelementptr inbounds nuw i8, ptr %1, i64 8
  store i64 %20, ptr %21, align 8, !tbaa !46
  br label %22

22:                                               ; preds = %19, %12
  %23 = lshr i32 %8, 7
  %.lobit = and i32 %23, 1
  %24 = getelementptr inbounds nuw i8, ptr %1, i64 40
  %25 = load i32, ptr %24, align 8, !tbaa !47
  %26 = or i32 %25, %.lobit
  store i32 %26, ptr %24, align 8, !tbaa !47
  %27 = getelementptr inbounds nuw i8, ptr %1, i64 72
  %28 = load i64, ptr %27, align 8, !tbaa !48
  %29 = add nsw i64 %28, -8
  store i64 %29, ptr %27, align 8, !tbaa !48
  %30 = getelementptr inbounds nuw i8, ptr %1, i64 32
  %31 = load i32, ptr %30, align 8, !tbaa !49
  br label %32

32:                                               ; preds = %6, %2, %22
  %.0 = phi i32 [ %31, %22 ], [ -541478725, %2 ], [ -5, %6 ]
  ret i32 %.0
}